; Function Attrs: mustprogress uwtable
define void @_ZNK5faiss11IndexRefine9sa_decodeElPKhPf(ptr nocapture noundef nonnull readonly align 8 dereferenceable(64) %0, i64 noundef %1, ptr nocapture noundef readonly %2, ptr noundef %3) unnamed_addr #1 align 2 personality ptr @__gxx_personality_v0 {
  %5 = getelementptr inbounds i8, ptr %0, i64 40
  %6 = load ptr, ptr %5, align 8
  %7 = load ptr, ptr %6, align 8
  %8 = getelementptr inbounds i8, ptr %7, i64 136
  %9 = load ptr, ptr %8, align 8
  %10 = tail call noundef i64 %9(ptr noundef nonnull align 8 dereferenceable(36) %6)
  %11 = getelementptr inbounds i8, ptr %0, i64 48
  %12 = load ptr, ptr %11, align 8
  %13 = load ptr, ptr %12, align 8
  %14 = getelementptr inbounds i8, ptr %13, i64 136
  %15 = load ptr, ptr %14, align 8
  %16 = tail call noundef i64 %15(ptr noundef nonnull align 8 dereferenceable(36) %12)
  %17 = load ptr, ptr %11, align 8
  %18 = load ptr, ptr %17, align 8
  %19 = getelementptr inbounds i8, ptr %18, i64 136
  %20 = load ptr, ptr %19, align 8
  %21 = tail call noundef i64 %20(ptr noundef nonnull align 8 dereferenceable(36) %17)
  %22 = mul i64 %21, %1
  %23 = tail call noalias noundef nonnull ptr @_Znam(i64 noundef %22) #21
  %.not = icmp eq i64 %1, 0
  br i1 %.not, label %._crit_edge, label %.lr.ph

.lr.ph:                                           ; preds = %4
  %24 = add i64 %16, %10
  br label %25

25:                                               ; preds = %.lr.ph, %25
  %.022 = phi i64 [ 0, %.lr.ph ], [ %30, %25 ]
  %26 = mul i64 %.022, %16
  %27 = getelementptr inbounds i8, ptr %23, i64 %26
  %28 = mul i64 %.022, %24
  %29 = getelementptr inbounds i8, ptr %2, i64 %28
  tail call void @llvm.memcpy.p0.p0.i64(ptr nonnull align 1 %27, ptr align 1 %29, i64 %16, i1 false)
  %30 = add nuw i64 %.022, 1
  %exitcond.not = icmp eq i64 %30, %1
  br i1 %exitcond.not, label %._crit_edge, label %25, !llvm.loop !7

._crit_edge:                                      ; preds = %25, %4
  %31 = load ptr, ptr %11, align 8
  %32 = load ptr, ptr %31, align 8
  %33 = getelementptr inbounds i8, ptr %32, i64 152
  %34 = load ptr, ptr %33, align 8
  invoke void %34(ptr noundef nonnull align 8 dereferenceable(36) %31, i64 noundef %1, ptr noundef nonnull %23, ptr noundef %3)
          to label %_ZNSt10unique_ptrIA_hSt14default_deleteIS0_EED2Ev.exit unwind label %_ZNSt10unique_ptrIA_hSt14default_deleteIS0_EED2Ev.exit18

_ZNSt10unique_ptrIA_hSt14default_deleteIS0_EED2Ev.exit: ; preds = %._crit_edge
  tail call void @_ZdaPv(ptr noundef nonnull %23) #19
  ret void

_ZNSt10unique_ptrIA_hSt14default_deleteIS0_EED2Ev.exit18: ; preds = %._crit_edge
  %35 = landingpad { ptr, i32 }
          cleanup
  tail call void @_ZdaPv(ptr noundef nonnull %23) #19
  resume { ptr, i32 } %35
}